target datalayout = "e-m:e-p270:32:32-p271:32:32-p272:64:64-i64:64-i128:128-f80:128-n8:16:32:64-S128"
target triple = "x86_64-pc-linux-gnu"

%struct.vars = type { ptr, ptr, ptr, i32, i32, i32, i32, i32, i32, i32, ptr, i64, [10 x ptr], ptr, ptr, i16, ptr, ptr, ptr, ptr, i32, ptr, ptr, ptr, i32, i64 }
%struct.colormap = type { i32, ptr, i64, i64, i16, ptr, ptr, [14 x i32], i32, ptr, ptr, i32, i32, i32, [10 x %struct.colordesc] }
%struct.colordesc = type { i32, i32, i16, ptr, i32, i32 }
%struct.arc = type { i32, i16, ptr, ptr, ptr, ptr, ptr, ptr, ptr, ptr }
%struct.state = type { i32, i8, i32, i32, ptr, ptr, ptr, ptr, ptr }

@InterruptPending = external global i32, align 4

; Function Attrs: nounwind uwtable
define internal void @newarc(ptr noundef %0, i32 noundef %1, i16 noundef signext %2, ptr noundef %3, ptr noundef %4) #0 {
  %6 = alloca ptr, align 8
  %7 = alloca i32, align 4
  %8 = alloca i16, align 2
  %9 = alloca ptr, align 8
  %10 = alloca ptr, align 8
  %11 = alloca ptr, align 8
  %12 = alloca i32, align 4
  store ptr %0, ptr %6, align 8
  store i32 %1, ptr %7, align 4
  store i16 %2, ptr %8, align 2
  store ptr %3, ptr %9, align 8
  store ptr %4, ptr %10, align 8
  call void @llvm.lifetime.start.p0(i64 8, ptr %11) #12
  br label %13

13:                                               ; preds = %5
  %14 = load volatile i32, ptr @InterruptPending, align 4
  %15 = icmp ne i32 %14, 0
  %16 = zext i1 %15 to i32
  %17 = sext i32 %16 to i64
  %18 = call i64 @llvm.expect.i64(i64 %17, i64 0)
  %19 = icmp ne i64 %18, 0
  br i1 %19, label %20, label %21

20:                                               ; preds = %13
  call void @ProcessInterrupts()
  br label %21

21:                                               ; preds = %20, %13
  br label %22

22:                                               ; preds = %21
  br label %23

23:                                               ; preds = %22
  %24 = load ptr, ptr %9, align 8
  %25 = getelementptr inbounds nuw %struct.state, ptr %24, i32 0, i32 3
  %26 = load i32, ptr %25, align 4
  %27 = load ptr, ptr %10, align 8
  %28 = getelementptr inbounds nuw %struct.state, ptr %27, i32 0, i32 2
  %29 = load i32, ptr %28, align 8
  %30 = icmp sle i32 %26, %29
  br i1 %30, label %31, label %65

31:                                               ; preds = %23
  %32 = load ptr, ptr %9, align 8
  %33 = getelementptr inbounds nuw %struct.state, ptr %32, i32 0, i32 5
  %34 = load ptr, ptr %33, align 8
  store ptr %34, ptr %11, align 8
  br label %35

35:                                               ; preds = %60, %31
  %36 = load ptr, ptr %11, align 8
  %37 = icmp ne ptr %36, null
  br i1 %37, label %38, label %64

38:                                               ; preds = %35
  %39 = load ptr, ptr %11, align 8
  %40 = getelementptr inbounds nuw %struct.arc, ptr %39, i32 0, i32 3
  %41 = load ptr, ptr %40, align 8
  %42 = load ptr, ptr %10, align 8
  %43 = icmp eq ptr %41, %42
  br i1 %43, label %44, label %59

44:                                               ; preds = %38
  %45 = load ptr, ptr %11, align 8
  %46 = getelementptr inbounds nuw %struct.arc, ptr %45, i32 0, i32 1
  %47 = load i16, ptr %46, align 4
  %48 = sext i16 %47 to i32
  %49 = load i16, ptr %8, align 2
  %50 = sext i16 %49 to i32
  %51 = icmp eq i32 %48, %50
  br i1 %51, label %52, label %59

52:                                               ; preds = %44
  %53 = load ptr, ptr %11, align 8
  %54 = getelementptr inbounds nuw %struct.arc, ptr %53, i32 0, i32 0
  %55 = load i32, ptr %54, align 8
  %56 = load i32, ptr %7, align 4
  %57 = icmp eq i32 %55, %56
  br i1 %57, label %58, label %59

58:                                               ; preds = %52
  store i32 1, ptr %12, align 4
  br label %105

59:                                               ; preds = %52, %44, %38
  br label %60

60:                                               ; preds = %59
  %61 = load ptr, ptr %11, align 8
  %62 = getelementptr inbounds nuw %struct.arc, ptr %61, i32 0, i32 4
  %63 = load ptr, ptr %62, align 8
  store ptr %63, ptr %11, align 8
  br label %35, !llvm.loop !34

64:                                               ; preds = %35
  br label %99

65:                                               ; preds = %23
  %66 = load ptr, ptr %10, align 8
  %67 = getelementptr inbounds nuw %struct.state, ptr %66, i32 0, i32 4
  %68 = load ptr, ptr %67, align 8
  store ptr %68, ptr %11, align 8
  br label %69

69:                                               ; preds = %94, %65
  %70 = load ptr, ptr %11, align 8
  %71 = icmp ne ptr %70, null
  br i1 %71, label %72, label %98

72:                                               ; preds = %69
  %73 = load ptr, ptr %11, align 8
  %74 = getelementptr inbounds nuw %struct.arc, ptr %73, i32 0, i32 2
  %75 = load ptr, ptr %74, align 8
  %76 = load ptr, ptr %9, align 8
  %77 = icmp eq ptr %75, %76
  br i1 %77, label %78, label %93

78:                                               ; preds = %72
  %79 = load ptr, ptr %11, align 8
  %80 = getelementptr inbounds nuw %struct.arc, ptr %79, i32 0, i32 1
  %81 = load i16, ptr %80, align 4
  %82 = sext i16 %81 to i32
  %83 = load i16, ptr %8, align 2
  %84 = sext i16 %83 to i32
  %85 = icmp eq i32 %82, %84
  br i1 %85, label %86, label %93

86:                                               ; preds = %78
  %87 = load ptr, ptr %11, align 8
  %88 = getelementptr inbounds nuw %struct.arc, ptr %87, i32 0, i32 0
  %89 = load i32, ptr %88, align 8
  %90 = load i32, ptr %7, align 4
  %91 = icmp eq i32 %89, %90
  br i1 %91, label %92, label %93

92:                                               ; preds = %86
  store i32 1, ptr %12, align 4
  br label %105

93:                                               ; preds = %86, %78, %72
  br label %94

94:                                               ; preds = %93
  %95 = load ptr, ptr %11, align 8
  %96 = getelementptr inbounds nuw %struct.arc, ptr %95, i32 0, i32 6
  %97 = load ptr, ptr %96, align 8
  store ptr %97, ptr %11, align 8
  br label %69, !llvm.loop !35

98:                                               ; preds = %69
  br label %99

99:                                               ; preds = %98, %64
  %100 = load ptr, ptr %6, align 8
  %101 = load i32, ptr %7, align 4
  %102 = load i16, ptr %8, align 2
  %103 = load ptr, ptr %9, align 8
  %104 = load ptr, ptr %10, align 8
  call void @createarc(ptr noundef %100, i32 noundef %101, i16 noundef signext %102, ptr noundef %103, ptr noundef %104)
  store i32 0, ptr %12, align 4
  br label %105

105:                                              ; preds = %99, %92, %58
  call void @llvm.lifetime.end.p0(i64 8, ptr %11) #12
  %106 = load i32, ptr %12, align 4
  switch i32 %106, label %108 [
    i32 0, label %107
    i32 1, label %107
  ]

107:                                              ; preds = %105, %105
  ret void

108:                                              ; preds = %105
  unreachable
}

; Function Attrs: nounwind uwtable
define internal void @rainbow(ptr noundef %0, ptr noundef %1, i32 noundef %2, i16 noundef signext %3, ptr noundef %4, ptr noundef %5) #0 {
  %7 = alloca ptr, align 8
  %8 = alloca ptr, align 8
  %9 = alloca i32, align 4
  %10 = alloca i16, align 2
  %11 = alloca ptr, align 8
  %12 = alloca ptr, align 8
  %13 = alloca ptr, align 8
  %14 = alloca ptr, align 8
  %15 = alloca i16, align 2
  %16 = alloca i32, align 4
  store ptr %0, ptr %7, align 8
  store ptr %1, ptr %8, align 8
  store i32 %2, ptr %9, align 4
  store i16 %3, ptr %10, align 2
  store ptr %4, ptr %11, align 8
  store ptr %5, ptr %12, align 8
  call void @llvm.lifetime.start.p0(i64 8, ptr %13) #12
  call void @llvm.lifetime.start.p0(i64 8, ptr %14) #12
  %17 = load ptr, ptr %8, align 8
  %18 = getelementptr inbounds nuw %struct.colormap, ptr %17, i32 0, i32 5
  %19 = load ptr, ptr %18, align 8
  %20 = load ptr, ptr %8, align 8
  %21 = getelementptr inbounds nuw %struct.colormap, ptr %20, i32 0, i32 3
  %22 = load i64, ptr %21, align 8
  %23 = add i64 %22, 1
  %24 = getelementptr inbounds nuw %struct.colordesc, ptr %19, i64 %23
  store ptr %24, ptr %14, align 8
  call void @llvm.lifetime.start.p0(i64 2, ptr %15) #12
  %25 = load i16, ptr %10, align 2
  %26 = sext i16 %25 to i32
  %27 = icmp eq i32 %26, -1
  br i1 %27, label %28, label %33

28:                                               ; preds = %6
  %29 = load ptr, ptr %7, align 8
  %30 = load i32, ptr %9, align 4
  %31 = load ptr, ptr %11, align 8
  %32 = load ptr, ptr %12, align 8
  call void @newarc(ptr noundef %29, i32 noundef %30, i16 noundef signext -2, ptr noundef %31, ptr noundef %32)
  store i32 1, ptr %16, align 4
  br label %90

33:                                               ; preds = %6
  %34 = load ptr, ptr %8, align 8
  %35 = getelementptr inbounds nuw %struct.colormap, ptr %34, i32 0, i32 5
  %36 = load ptr, ptr %35, align 8
  store ptr %36, ptr %13, align 8
  store i16 0, ptr %15, align 2
  br label %37

37:                                               ; preds = %84, %33
  %38 = load ptr, ptr %13, align 8
  %39 = load ptr, ptr %14, align 8
  %40 = icmp ult ptr %38, %39
  br i1 %40, label %41, label %49

41:                                               ; preds = %37
  %42 = load ptr, ptr %8, align 8
  %43 = getelementptr inbounds nuw %struct.colormap, ptr %42, i32 0, i32 1
  %44 = load ptr, ptr %43, align 8
  %45 = getelementptr inbounds nuw %struct.vars, ptr %44, i32 0, i32 3
  %46 = load i32, ptr %45, align 8
  %47 = icmp ne i32 %46, 0
  %48 = xor i1 %47, true
  br label %49

49:                                               ; preds = %41, %37
  %50 = phi i1 [ false, %37 ], [ %48, %41 ]
  br i1 %50, label %51, label %89

51:                                               ; preds = %49
  %52 = load ptr, ptr %13, align 8
  %53 = getelementptr inbounds nuw %struct.colordesc, ptr %52, i32 0, i32 5
  %54 = load i32, ptr %53, align 4
  %55 = and i32 %54, 1
  %56 = icmp ne i32 %55, 0
  br i1 %56, label %83, label %57

57:                                               ; preds = %51
  %58 = load ptr, ptr %13, align 8
  %59 = getelementptr inbounds nuw %struct.colordesc, ptr %58, i32 0, i32 2
  %60 = load i16, ptr %59, align 8
  %61 = sext i16 %60 to i32
  %62 = load i16, ptr %15, align 2
  %63 = sext i16 %62 to i32
  %64 = icmp ne i32 %61, %63
  br i1 %64, label %65, label %83

65:                                               ; preds = %57
  %66 = load i16, ptr %15, align 2
  %67 = sext i16 %66 to i32
  %68 = load i16, ptr %10, align 2
  %69 = sext i16 %68 to i32
  %70 = icmp ne i32 %67, %69
  br i1 %70, label %71, label %83

71:                                               ; preds = %65
  %72 = load ptr, ptr %13, align 8
  %73 = getelementptr inbounds nuw %struct.colordesc, ptr %72, i32 0, i32 5
  %74 = load i32, ptr %73, align 4
  %75 = and i32 %74, 2
  %76 = icmp ne i32 %75, 0
  br i1 %76, label %83, label %77

77:                                               ; preds = %71
  %78 = load ptr, ptr %7, align 8
  %79 = load i32, ptr %9, align 4
  %80 = load i16, ptr %15, align 2
  %81 = load ptr, ptr %11, align 8
  %82 = load ptr, ptr %12, align 8
  call void @newarc(ptr noundef %78, i32 noundef %79, i16 noundef signext %80, ptr noundef %81, ptr noundef %82)
  br label %83

83:                                               ; preds = %77, %71, %65, %57, %51
  br label %84

84:                                               ; preds = %83
  %85 = load ptr, ptr %13, align 8
  %86 = getelementptr inbounds nuw %struct.colordesc, ptr %85, i32 1
  store ptr %86, ptr %13, align 8
  %87 = load i16, ptr %15, align 2
  %88 = add i16 %87, 1
  store i16 %88, ptr %15, align 2
  br label %37, !llvm.loop !33

89:                                               ; preds = %49
  store i32 0, ptr %16, align 4
  br label %90

90:                                               ; preds = %89, %28
  call void @llvm.lifetime.end.p0(i64 2, ptr %15) #12
  call void @llvm.lifetime.end.p0(i64 8, ptr %14) #12
  call void @llvm.lifetime.end.p0(i64 8, ptr %13) #12
  %91 = load i32, ptr %16, align 4
  switch i32 %91, label %93 [
    i32 0, label %92
    i32 1, label %92
  ]

92:                                               ; preds = %90, %90
  ret void

93:                                               ; preds = %90
  unreachable
}