; Function Attrs: nounwind uwtable
define internal fastcc void @rainbow(ptr noundef captures(none) %0, ptr noundef readonly captures(none) %1, i16 noundef signext %2, ptr noundef %3, ptr noundef %4) unnamed_addr #0 {
  %6 = getelementptr inbounds nuw i8, ptr %1, i64 40
  %7 = load ptr, ptr %6, align 8
  %8 = getelementptr inbounds nuw i8, ptr %1, i64 24
  %9 = load i64, ptr %8, align 8
  %10 = getelementptr %struct.colordesc, ptr %7, i64 %9
  %11 = getelementptr i8, ptr %10, i64 32
  %12 = icmp eq i16 %2, -1
  br i1 %12, label %18, label %.preheader

.preheader:                                       ; preds = %5
  %13 = getelementptr inbounds nuw i8, ptr %1, i64 8
  %14 = icmp ult ptr %7, %11
  br i1 %14, label %.lr.ph, label %.critedge

.lr.ph:                                           ; preds = %.preheader
  %15 = getelementptr inbounds nuw i8, ptr %3, i64 12
  %16 = getelementptr inbounds nuw i8, ptr %4, i64 8
  %.0.in30.i34 = getelementptr inbounds nuw i8, ptr %3, i64 24
  %17 = getelementptr inbounds nuw i8, ptr %4, i64 16
  br label %51

18:                                               ; preds = %5
  %19 = load volatile i32, ptr @InterruptPending, align 4
  %.not.i = icmp eq i32 %19, 0
  br i1 %.not.i, label %21, label %20, !prof !13

20:                                               ; preds = %18
  tail call void @ProcessInterrupts() #20
  br label %21

21:                                               ; preds = %20, %18
  %22 = getelementptr inbounds nuw i8, ptr %3, i64 12
  %23 = load i32, ptr %22, align 4
  %24 = getelementptr inbounds nuw i8, ptr %4, i64 8
  %25 = load i32, ptr %24, align 8
  %.not24.i = icmp sgt i32 %23, %25
  br i1 %.not24.i, label %37, label %.preheader.i

.preheader.i:                                     ; preds = %21
  %.0.in30.i = getelementptr inbounds nuw i8, ptr %3, i64 24
  %.031.i = load ptr, ptr %.0.in30.i, align 8
  %.not2632.i = icmp eq ptr %.031.i, null
  br i1 %.not2632.i, label %.loopexit.i, label %.lr.ph.i

.lr.ph.i:                                         ; preds = %.preheader.i, %36
  %.033.i = phi ptr [ %.0.i, %36 ], [ %.031.i, %.preheader.i ]
  %26 = getelementptr inbounds nuw i8, ptr %.033.i, i64 16
  %27 = load ptr, ptr %26, align 8
  %28 = icmp eq ptr %27, %4
  br i1 %28, label %29, label %36

29:                                               ; preds = %.lr.ph.i
  %30 = getelementptr inbounds nuw i8, ptr %.033.i, i64 4
  %31 = load i16, ptr %30, align 4
  %32 = icmp eq i16 %31, -2
  br i1 %32, label %33, label %36

33:                                               ; preds = %29
  %34 = load i32, ptr %.033.i, align 8
  %35 = icmp eq i32 %34, 112
  br i1 %35, label %.critedge, label %36

36:                                               ; preds = %33, %29, %.lr.ph.i
  %.0.in.i = getelementptr inbounds nuw i8, ptr %.033.i, i64 24
  %.0.i = load ptr, ptr %.0.in.i, align 8
  %.not26.i = icmp eq ptr %.0.i, null
  br i1 %.not26.i, label %.loopexit.i, label %.lr.ph.i, !llvm.loop !14

37:                                               ; preds = %21
  %38 = getelementptr inbounds nuw i8, ptr %4, i64 16
  %.134.i = load ptr, ptr %38, align 8
  %.not2535.i = icmp eq ptr %.134.i, null
  br i1 %.not2535.i, label %.loopexit.i, label %.lr.ph37.i

.lr.ph37.i:                                       ; preds = %37, %49
  %.136.i = phi ptr [ %.1.i, %49 ], [ %.134.i, %37 ]
  %39 = getelementptr inbounds nuw i8, ptr %.136.i, i64 8
  %40 = load ptr, ptr %39, align 8
  %41 = icmp eq ptr %40, %3
  br i1 %41, label %42, label %49

42:                                               ; preds = %.lr.ph37.i
  %43 = getelementptr inbounds nuw i8, ptr %.136.i, i64 4
  %44 = load i16, ptr %43, align 4
  %45 = icmp eq i16 %44, -2
  br i1 %45, label %46, label %49

46:                                               ; preds = %42
  %47 = load i32, ptr %.136.i, align 8
  %48 = icmp eq i32 %47, 112
  br i1 %48, label %.critedge, label %49

49:                                               ; preds = %46, %42, %.lr.ph37.i
  %50 = getelementptr inbounds nuw i8, ptr %.136.i, i64 40
  %.1.i = load ptr, ptr %50, align 8
  %.not25.i = icmp eq ptr %.1.i, null
  br i1 %.not25.i, label %.loopexit.i, label %.lr.ph37.i, !llvm.loop !15

.loopexit.i:                                      ; preds = %36, %49, %37, %.preheader.i
  tail call fastcc void @createarc(ptr noundef %0, i32 noundef 112, i16 noundef signext -2, ptr noundef %3, ptr noundef %4)
  br label %.critedge

51:                                               ; preds = %.lr.ph, %newarc.exit49
  %.057 = phi i16 [ 0, %.lr.ph ], [ %94, %newarc.exit49 ]
  %.02356 = phi ptr [ %7, %.lr.ph ], [ %93, %newarc.exit49 ]
  %52 = load ptr, ptr %13, align 8
  %53 = getelementptr inbounds nuw i8, ptr %52, i64 24
  %54 = load i32, ptr %53, align 8
  %.not = icmp eq i32 %54, 0
  br i1 %.not, label %55, label %.critedge

55:                                               ; preds = %51
  %56 = getelementptr inbounds nuw i8, ptr %.02356, i64 28
  %57 = load i32, ptr %56, align 4
  %58 = and i32 %57, 1
  %.not26 = icmp eq i32 %58, 0
  br i1 %.not26, label %59, label %newarc.exit49

59:                                               ; preds = %55
  %60 = getelementptr inbounds nuw i8, ptr %.02356, i64 8
  %61 = load i16, ptr %60, align 8
  %.not27 = icmp ne i16 %61, %.057
  %.not28 = icmp ne i16 %.057, %2
  %or.cond.not50 = and i1 %.not28, %.not27
  %62 = and i32 %57, 2
  %.not29 = icmp eq i32 %62, 0
  %or.cond30 = and i1 %.not29, %or.cond.not50
  br i1 %or.cond30, label %63, label %newarc.exit49

63:                                               ; preds = %59
  %64 = load volatile i32, ptr @InterruptPending, align 4
  %.not.i31 = icmp eq i32 %64, 0
  br i1 %.not.i31, label %66, label %65, !prof !13

65:                                               ; preds = %63
  tail call void @ProcessInterrupts() #20
  br label %66

66:                                               ; preds = %65, %63
  %67 = load i32, ptr %15, align 4
  %68 = load i32, ptr %16, align 8
  %.not24.i32 = icmp sgt i32 %67, %68
  br i1 %.not24.i32, label %80, label %.preheader.i33

.preheader.i33:                                   ; preds = %66
  %.031.i35 = load ptr, ptr %.0.in30.i34, align 8
  %.not2632.i36 = icmp eq ptr %.031.i35, null
  br i1 %.not2632.i36, label %.loopexit.i42, label %.lr.ph.i37

.lr.ph.i37:                                       ; preds = %.preheader.i33, %79
  %.033.i38 = phi ptr [ %.0.i40, %79 ], [ %.031.i35, %.preheader.i33 ]
  %69 = getelementptr inbounds nuw i8, ptr %.033.i38, i64 16
  %70 = load ptr, ptr %69, align 8
  %71 = icmp eq ptr %70, %4
  br i1 %71, label %72, label %79

72:                                               ; preds = %.lr.ph.i37
  %73 = getelementptr inbounds nuw i8, ptr %.033.i38, i64 4
  %74 = load i16, ptr %73, align 4
  %75 = icmp eq i16 %74, %.057
  br i1 %75, label %76, label %79

76:                                               ; preds = %72
  %77 = load i32, ptr %.033.i38, align 8
  %78 = icmp eq i32 %77, 112
  br i1 %78, label %newarc.exit49, label %79

79:                                               ; preds = %76, %72, %.lr.ph.i37
  %.0.in.i39 = getelementptr inbounds nuw i8, ptr %.033.i38, i64 24
  %.0.i40 = load ptr, ptr %.0.in.i39, align 8
  %.not26.i41 = icmp eq ptr %.0.i40, null
  br i1 %.not26.i41, label %.loopexit.i42, label %.lr.ph.i37, !llvm.loop !14

80:                                               ; preds = %66
  %.134.i43 = load ptr, ptr %17, align 8
  %.not2535.i44 = icmp eq ptr %.134.i43, null
  br i1 %.not2535.i44, label %.loopexit.i42, label %.lr.ph37.i45

.lr.ph37.i45:                                     ; preds = %80, %91
  %.136.i46 = phi ptr [ %.1.i47, %91 ], [ %.134.i43, %80 ]
  %81 = getelementptr inbounds nuw i8, ptr %.136.i46, i64 8
  %82 = load ptr, ptr %81, align 8
  %83 = icmp eq ptr %82, %3
  br i1 %83, label %84, label %91

84:                                               ; preds = %.lr.ph37.i45
  %85 = getelementptr inbounds nuw i8, ptr %.136.i46, i64 4
  %86 = load i16, ptr %85, align 4
  %87 = icmp eq i16 %86, %.057
  br i1 %87, label %88, label %91

88:                                               ; preds = %84
  %89 = load i32, ptr %.136.i46, align 8
  %90 = icmp eq i32 %89, 112
  br i1 %90, label %newarc.exit49, label %91

91:                                               ; preds = %88, %84, %.lr.ph37.i45
  %92 = getelementptr inbounds nuw i8, ptr %.136.i46, i64 40
  %.1.i47 = load ptr, ptr %92, align 8
  %.not25.i48 = icmp eq ptr %.1.i47, null
  br i1 %.not25.i48, label %.loopexit.i42, label %.lr.ph37.i45, !llvm.loop !15

.loopexit.i42:                                    ; preds = %79, %91, %80, %.preheader.i33
  tail call fastcc void @createarc(ptr noundef %0, i32 noundef 112, i16 noundef signext %.057, ptr noundef %3, ptr noundef %4)
  br label %newarc.exit49

newarc.exit49:                                    ; preds = %76, %88, %.loopexit.i42, %55, %59
  %93 = getelementptr inbounds nuw i8, ptr %.02356, i64 32
  %94 = add i16 %.057, 1
  %95 = icmp ult ptr %93, %11
  br i1 %95, label %51, label %.critedge, !llvm.loop !89

.critedge:                                        ; preds = %newarc.exit49, %51, %33, %46, %.preheader, %.loopexit.i
  ret void
}